; Function Attrs: null_pointer_is_valid sspstrong uwtable
define internal fastcc void @dissect_tlv_er_hop_lspid(ptr noundef %0, ptr noundef %1, i32 noundef %2, ptr noundef %3, i32 noundef range(i32 0, 2147483644) %4) unnamed_addr #0 {
  %.not = icmp eq i32 %4, 8
  br i1 %.not, label %8, label %6

6:                                                ; preds = %5
  %7 = tail call ptr (ptr, ptr, ptr, ptr, i32, i32, ptr, ...) @proto_tree_add_expert_format(ptr noundef %3, ptr noundef %1, ptr noundef nonnull @ei_ldp_tlv_fec_len, ptr noundef %0, i32 noundef %2, i32 noundef %4, ptr noundef nonnull @.str.1081, i32 noundef %4)
  br label %20

8:                                                ; preds = %5
  %9 = load i32, ptr @ett_ldp_tlv_val, align 4
  %10 = tail call ptr @proto_tree_add_subtree(ptr noundef %3, ptr noundef %0, i32 noundef %2, i32 noundef 8, i32 noundef %9, ptr noundef null, ptr noundef nonnull @.str.1082)
  %.not23 = icmp eq ptr %10, null
  br i1 %.not23, label %20, label %11

11:                                               ; preds = %8
  %12 = load i32, ptr @hf_ldp_tlv_er_hop_loose, align 4
  %13 = tail call ptr @proto_tree_add_item(ptr noundef nonnull %10, i32 noundef %12, ptr noundef %0, i32 noundef %2, i32 noundef 2, i32 noundef 0)
  %14 = add i32 %2, 2
  %15 = load i32, ptr @hf_ldp_tlv_er_hop_cr_lsp, align 4
  %16 = tail call ptr @proto_tree_add_item(ptr noundef nonnull %10, i32 noundef %15, ptr noundef %0, i32 noundef %14, i32 noundef 2, i32 noundef 0)
  %17 = add i32 %2, 4
  %18 = load i32, ptr @hf_ldp_tlv_er_hop_ldpid, align 4
  %19 = tail call ptr @proto_tree_add_item(ptr noundef nonnull %10, i32 noundef %18, ptr noundef %0, i32 noundef %17, i32 noundef 4, i32 noundef 0)
  br label %20

20:                                               ; preds = %8, %11, %6
  ret void
}